; ModuleID = '21/2087.c'
source_filename = "21/2087.c"
target datalayout = "e-m:e-p270:32:32-p271:32:32-p272:64:64-i64:64-f80:128-n8:16:32:64-S128"
target triple = "x86_64-pc-linux-gnu"

@.str = private unnamed_addr constant [3 x i8] c"%d\00", align 1
@.str.1 = private unnamed_addr constant [4 x i8] c",%d\00", align 1

; Function Attrs: noinline nounwind uwtable
define dso_local void @main() #0 {
  %1 = alloca [300 x i32], align 16
  %2 = alloca i32, align 4
  %3 = alloca i32, align 4
  %4 = alloca i32, align 4
  %5 = alloca i64, align 8
  %6 = alloca float, align 4
  %7 = alloca float, align 4
  %8 = alloca [300 x float], align 16
  store i64 0, i64* %5, align 8
  %9 = call i32 (i8*, ...) @__isoc99_scanf(i8* getelementptr inbounds ([3 x i8], [3 x i8]* @.str, i64 0, i64 0), i32* %2)
  store i32 0, i32* %3, align 4
  br label %10

10:                                               ; preds = %26, %0
  %11 = load i32, i32* %3, align 4
  %12 = load i32, i32* %2, align 4
  %13 = icmp slt i32 %11, %12
  br i1 %13, label %14, label %29

14:                                               ; preds = %10
  %15 = load i32, i32* %3, align 4
  %16 = sext i32 %15 to i64
  %17 = getelementptr inbounds [300 x i32], [300 x i32]* %1, i64 0, i64 %16
  %18 = call i32 (i8*, ...) @__isoc99_scanf(i8* getelementptr inbounds ([3 x i8], [3 x i8]* @.str, i64 0, i64 0), i32* %17)
  %19 = load i64, i64* %5, align 8
  %20 = load i32, i32* %3, align 4
  %21 = sext i32 %20 to i64
  %22 = getelementptr inbounds [300 x i32], [300 x i32]* %1, i64 0, i64 %21
  %23 = load i32, i32* %22, align 4
  %24 = sext i32 %23 to i64
  %25 = add nsw i64 %19, %24
  store i64 %25, i64* %5, align 8
  br label %26

26:                                               ; preds = %14
  %27 = load i32, i32* %3, align 4
  %28 = add nsw i32 %27, 1
  store i32 %28, i32* %3, align 4
  br label %10

29:                                               ; preds = %10
  %30 = load i64, i64* %5, align 8
  %31 = sitofp i64 %30 to double
  %32 = load i32, i32* %2, align 4
  %33 = sitofp i32 %32 to double
  %34 = fdiv double %31, %33
  %35 = fptrunc double %34 to float
  store float %35, float* %6, align 4
  %36 = getelementptr inbounds [300 x i32], [300 x i32]* %1, i64 0, i64 0
  %37 = load i32, i32* %36, align 16
  %38 = sitofp i32 %37 to float
  %39 = load float, float* %6, align 4
  %40 = fsub float %38, %39
  %41 = fpext float %40 to double
  %42 = call double @llvm.fabs.f64(double %41)
  %43 = fptrunc double %42 to float
  store float %43, float* %7, align 4
  store i32 0, i32* %3, align 4
  br label %44

44:                                               ; preds = %74, %29
  %45 = load i32, i32* %3, align 4
  %46 = load i32, i32* %2, align 4
  %47 = icmp slt i32 %45, %46
  br i1 %47, label %48, label %77

48:                                               ; preds = %44
  %49 = load i32, i32* %3, align 4
  %50 = sext i32 %49 to i64
  %51 = getelementptr inbounds [300 x i32], [300 x i32]* %1, i64 0, i64 %50
  %52 = load i32, i32* %51, align 4
  %53 = sitofp i32 %52 to float
  %54 = load float, float* %6, align 4
  %55 = fsub float %53, %54
  %56 = fpext float %55 to double
  %57 = call double @llvm.fabs.f64(double %56)
  %58 = fptrunc double %57 to float
  %59 = load i32, i32* %3, align 4
  %60 = sext i32 %59 to i64
  %61 = getelementptr inbounds [300 x float], [300 x float]* %8, i64 0, i64 %60
  store float %58, float* %61, align 4
  %62 = load i32, i32* %3, align 4
  %63 = sext i32 %62 to i64
  %64 = getelementptr inbounds [300 x float], [300 x float]* %8, i64 0, i64 %63
  %65 = load float, float* %64, align 4
  %66 = load float, float* %7, align 4
  %67 = fcmp ogt float %65, %66
  br i1 %67, label %68, label %73

68:                                               ; preds = %48
  %69 = load i32, i32* %3, align 4
  %70 = sext i32 %69 to i64
  %71 = getelementptr inbounds [300 x float], [300 x float]* %8, i64 0, i64 %70
  %72 = load float, float* %71, align 4
  store float %72, float* %7, align 4
  br label %73

73:                                               ; preds = %68, %48
  br label %74

74:                                               ; preds = %73
  %75 = load i32, i32* %3, align 4
  %76 = add nsw i32 %75, 1
  store i32 %76, i32* %3, align 4
  br label %44

77:                                               ; preds = %44
  store i32 0, i32* %3, align 4
  br label %78

78:                                               ; preds = %98, %77
  %79 = load i32, i32* %3, align 4
  %80 = load i32, i32* %2, align 4
  %81 = icmp slt i32 %79, %80
  br i1 %81, label %82, label %101

82:                                               ; preds = %78
  %83 = load i32, i32* %3, align 4
  %84 = sext i32 %83 to i64
  %85 = getelementptr inbounds [300 x float], [300 x float]* %8, i64 0, i64 %84
  %86 = load float, float* %85, align 4
  %87 = load float, float* %7, align 4
  %88 = fcmp oeq float %86, %87
  br i1 %88, label %89, label %97

89:                                               ; preds = %82
  %90 = load i32, i32* %3, align 4
  %91 = sext i32 %90 to i64
  %92 = getelementptr inbounds [300 x i32], [300 x i32]* %1, i64 0, i64 %91
  %93 = load i32, i32* %92, align 4
  %94 = call i32 (i8*, ...) @printf(i8* getelementptr inbounds ([3 x i8], [3 x i8]* @.str, i64 0, i64 0), i32 %93)
  %95 = load i32, i32* %3, align 4
  %96 = add nsw i32 %95, 1
  store i32 %96, i32* %4, align 4
  br label %101

97:                                               ; preds = %82
  br label %98

98:                                               ; preds = %97
  %99 = load i32, i32* %3, align 4
  %100 = add nsw i32 %99, 1
  store i32 %100, i32* %3, align 4
  br label %78

101:                                              ; preds = %89, %78
  %102 = load i32, i32* %4, align 4
  store i32 %102, i32* %3, align 4
  br label %103

103:                                              ; preds = %121, %101
  %104 = load i32, i32* %3, align 4
  %105 = load i32, i32* %2, align 4
  %106 = icmp slt i32 %104, %105
  br i1 %106, label %107, label %124

107:                                              ; preds = %103
  %108 = load i32, i32* %3, align 4
  %109 = sext i32 %108 to i64
  %110 = getelementptr inbounds [300 x float], [300 x float]* %8, i64 0, i64 %109
  %111 = load float, float* %110, align 4
  %112 = load float, float* %7, align 4
  %113 = fcmp oeq float %111, %112
  br i1 %113, label %114, label %120

114:                                              ; preds = %107
  %115 = load i32, i32* %3, align 4
  %116 = sext i32 %115 to i64
  %117 = getelementptr inbounds [300 x i32], [300 x i32]* %1, i64 0, i64 %116
  %118 = load i32, i32* %117, align 4
  %119 = call i32 (i8*, ...) @printf(i8* getelementptr inbounds ([4 x i8], [4 x i8]* @.str.1, i64 0, i64 0), i32 %118)
  br label %120

120:                                              ; preds = %114, %107
  br label %121

121:                                              ; preds = %120
  %122 = load i32, i32* %3, align 4
  %123 = add nsw i32 %122, 1
  store i32 %123, i32* %3, align 4
  br label %103

124:                                              ; preds = %103
  ret void
}

declare dso_local i32 @__isoc99_scanf(i8*, ...) #1

; Function Attrs: nounwind readnone speculatable willreturn
declare double @llvm.fabs.f64(double) #2

declare dso_local i32 @printf(i8*, ...) #1


!llvm.module.flags = !{!0}
!llvm.ident = !{!1}

!0 = !{i32 1, !"wchar_size", i32 4}
!1 = !{!"clang version 10.0.0-4ubuntu1 "}
